target datalayout = "e-m:e-p270:32:32-p271:32:32-p272:64:64-i64:64-i128:128-f80:128-n8:16:32:64-S128"
target triple = "x86_64-unknown-linux-gnu"

%"class.icu_75::UnicodeString" = type { %"class.icu_75::Replaceable", %"union.icu_75::UnicodeString::StackBufferOrFields" }
%"class.icu_75::Replaceable" = type { %"class.icu_75::UObject" }
%"class.icu_75::UObject" = type { ptr }
%"union.icu_75::UnicodeString::StackBufferOrFields" = type { %struct.anon.0, [32 x i8] }
%struct.anon.0 = type { i16, i32, i32, ptr }
%"class.icu_75::TransliteratorAlias" = type { [8 x i8], %"class.icu_75::UnicodeString", %"class.icu_75::UnicodeString", ptr, ptr, i32, i32 }

; Function Attrs: mustprogress nounwind uwtable
define void @_ZN6icu_7519TransliteratorAliasD2Ev(ptr noundef nonnull align 8 dereferenceable(160) %this) unnamed_addr #0 align 2 {
entry:
  %this.addr = alloca ptr, align 8
  store ptr %this, ptr %this.addr, align 8
  %this1 = load ptr, ptr %this.addr, align 8
  %transes = getelementptr inbounds %"class.icu_75::TransliteratorAlias", ptr %this1, i32 0, i32 3
  %0 = load ptr, ptr %transes, align 8
  %isnull = icmp eq ptr %0, null
  br i1 %isnull, label %delete.end, label %delete.notnull

delete.notnull:                                   ; preds = %entry
  %vtable = load ptr, ptr %0, align 8
  %vfn = getelementptr inbounds ptr, ptr %vtable, i64 1
  %1 = load ptr, ptr %vfn, align 8
  call void %1(ptr noundef nonnull align 8 dereferenceable(40) %0) #9
  br label %delete.end

delete.end:                                       ; preds = %delete.notnull, %entry
  %aliasesOrRules = getelementptr inbounds %"class.icu_75::TransliteratorAlias", ptr %this1, i32 0, i32 2
  call void @_ZN6icu_7513UnicodeStringD1Ev(ptr noundef nonnull align 8 dereferenceable(64) %aliasesOrRules) #9
  %ID = getelementptr inbounds %"class.icu_75::TransliteratorAlias", ptr %this1, i32 0, i32 1
  call void @_ZN6icu_7513UnicodeStringD1Ev(ptr noundef nonnull align 8 dereferenceable(64) %ID) #9
  ret void
}