; Function Attrs: mustprogress nounwind uwtable
define void @_ZN6icu_7519TransliteratorAliasD2Ev(ptr noundef nonnull align 8 dereferenceable(160) %this) unnamed_addr #0 align 2 {
entry:
  %transes = getelementptr inbounds i8, ptr %this, i64 136
  %0 = load ptr, ptr %transes, align 8
  %isnull = icmp eq ptr %0, null
  br i1 %isnull, label %delete.end, label %delete.notnull

delete.notnull:                                   ; preds = %entry
  %vtable = load ptr, ptr %0, align 8
  %vfn = getelementptr inbounds i8, ptr %vtable, i64 8
  %1 = load ptr, ptr %vfn, align 8
  tail call void %1(ptr noundef nonnull align 8 dereferenceable(40) %0) #15
  br label %delete.end

delete.end:                                       ; preds = %delete.notnull, %entry
  %aliasesOrRules = getelementptr inbounds i8, ptr %this, i64 72
  tail call void @_ZN6icu_7513UnicodeStringD1Ev(ptr noundef nonnull align 8 dereferenceable(64) %aliasesOrRules) #15
  %ID = getelementptr inbounds i8, ptr %this, i64 8
  tail call void @_ZN6icu_7513UnicodeStringD1Ev(ptr noundef nonnull align 8 dereferenceable(64) %ID) #15
  ret void
}